target datalayout = "e-m:e-p270:32:32-p271:32:32-p272:64:64-i64:64-i128:128-f80:128-n8:16:32:64-S128"
target triple = "x86_64-pc-linux-gnu"

%struct.tm = type { i32, i32, i32, i32, i32, i32, i32, i32, i32, i64, ptr }

; Function Attrs: nounwind uwtable
define i64 @PGTYPESdate_from_asc(ptr noundef %0, ptr noundef %1) #0 {
  %3 = alloca i64, align 8
  %4 = alloca ptr, align 8
  %5 = alloca ptr, align 8
  %6 = alloca i64, align 8
  %7 = alloca i32, align 4
  %8 = alloca %struct.tm, align 8
  %9 = alloca ptr, align 8
  %10 = alloca i32, align 4
  %11 = alloca i32, align 4
  %12 = alloca [25 x ptr], align 16
  %13 = alloca [25 x i32], align 16
  %14 = alloca [153 x i8], align 16
  %15 = alloca ptr, align 8
  %16 = alloca ptr, align 8
  %17 = alloca i8, align 1
  %18 = alloca i32, align 4
  store ptr %0, ptr %4, align 8
  store ptr %1, ptr %5, align 8
  call void @llvm.lifetime.start.p0(i64 8, ptr %6) #7
  call void @llvm.lifetime.start.p0(i64 4, ptr %7) #7
  call void @llvm.lifetime.start.p0(i64 56, ptr %8) #7
  call void @llvm.lifetime.start.p0(i64 8, ptr %9) #7
  store ptr %8, ptr %9, align 8
  call void @llvm.lifetime.start.p0(i64 4, ptr %10) #7
  call void @llvm.lifetime.start.p0(i64 4, ptr %11) #7
  call void @llvm.lifetime.start.p0(i64 200, ptr %12) #7
  call void @llvm.lifetime.start.p0(i64 100, ptr %13) #7
  call void @llvm.lifetime.start.p0(i64 153, ptr %14) #7
  call void @llvm.lifetime.start.p0(i64 8, ptr %15) #7
  call void @llvm.lifetime.start.p0(i64 8, ptr %16) #7
  %19 = load ptr, ptr %5, align 8
  %20 = icmp ne ptr %19, null
  br i1 %20, label %21, label %23

21:                                               ; preds = %2
  %22 = load ptr, ptr %5, align 8
  br label %24

23:                                               ; preds = %2
  br label %24

24:                                               ; preds = %23, %21
  %25 = phi ptr [ %22, %21 ], [ %15, %23 ]
  store ptr %25, ptr %16, align 8
  call void @llvm.lifetime.start.p0(i64 1, ptr %17) #7
  store i8 0, ptr %17, align 1
  %26 = call ptr @__errno_location() #8
  store i32 0, ptr %26, align 4
  %27 = load ptr, ptr %4, align 8
  %28 = call i64 @strlen(ptr noundef %27) #9
  %29 = icmp ugt i64 %28, 128
  br i1 %29, label %30, label %32

30:                                               ; preds = %24
  %31 = call ptr @__errno_location() #8
  store i32 310, ptr %31, align 4
  store i64 -2147483648, ptr %3, align 8
  store i32 1, ptr %18, align 4
  br label %77

32:                                               ; preds = %24
  %33 = load ptr, ptr %4, align 8
  %34 = getelementptr inbounds [153 x i8], ptr %14, i64 0, i64 0
  %35 = getelementptr inbounds [25 x ptr], ptr %12, i64 0, i64 0
  %36 = getelementptr inbounds [25 x i32], ptr %13, i64 0, i64 0
  %37 = load ptr, ptr %16, align 8
  %38 = call i32 @ParseDateTime(ptr noundef %33, ptr noundef %34, ptr noundef %35, ptr noundef %36, ptr noundef %11, ptr noundef %37)
  %39 = icmp ne i32 %38, 0
  br i1 %39, label %49, label %40

40:                                               ; preds = %32
  %41 = getelementptr inbounds [25 x ptr], ptr %12, i64 0, i64 0
  %42 = getelementptr inbounds [25 x i32], ptr %13, i64 0, i64 0
  %43 = load i32, ptr %11, align 4
  %44 = load ptr, ptr %9, align 8
  %45 = load i8, ptr %17, align 1, !range !3, !noundef !4
  %46 = trunc i8 %45 to i1
  %47 = call i32 @DecodeDateTime(ptr noundef %41, ptr noundef %42, i32 noundef %43, ptr noundef %10, ptr noundef %44, ptr noundef %7, i1 noundef zeroext %46)
  %48 = icmp ne i32 %47, 0
  br i1 %48, label %49, label %51

49:                                               ; preds = %40, %32
  %50 = call ptr @__errno_location() #8
  store i32 310, ptr %50, align 4
  store i64 -2147483648, ptr %3, align 8
  store i32 1, ptr %18, align 4
  br label %77

51:                                               ; preds = %40
  %52 = load i32, ptr %10, align 4
  switch i32 %52, label %60 [
    i32 2, label %62
    i32 11, label %53
  ]

53:                                               ; preds = %51
  %54 = load ptr, ptr %9, align 8
  %55 = call i32 @GetEpochTime(ptr noundef %54)
  %56 = icmp slt i32 %55, 0
  br i1 %56, label %57, label %59

57:                                               ; preds = %53
  %58 = call ptr @__errno_location() #8
  store i32 310, ptr %58, align 4
  store i64 -2147483648, ptr %3, align 8
  store i32 1, ptr %18, align 4
  br label %77

59:                                               ; preds = %53
  br label %62

60:                                               ; preds = %51
  %61 = call ptr @__errno_location() #8
  store i32 310, ptr %61, align 4
  store i64 -2147483648, ptr %3, align 8
  store i32 1, ptr %18, align 4
  br label %77

62:                                               ; preds = %59, %51
  %63 = load ptr, ptr %9, align 8
  %64 = getelementptr inbounds nuw %struct.tm, ptr %63, i32 0, i32 5
  %65 = load i32, ptr %64, align 4
  %66 = load ptr, ptr %9, align 8
  %67 = getelementptr inbounds nuw %struct.tm, ptr %66, i32 0, i32 4
  %68 = load i32, ptr %67, align 8
  %69 = load ptr, ptr %9, align 8
  %70 = getelementptr inbounds nuw %struct.tm, ptr %69, i32 0, i32 3
  %71 = load i32, ptr %70, align 4
  %72 = call i32 @date2j(i32 noundef %65, i32 noundef %68, i32 noundef %71)
  %73 = call i32 @date2j(i32 noundef 2000, i32 noundef 1, i32 noundef 1)
  %74 = sub i32 %72, %73
  %75 = sext i32 %74 to i64
  store i64 %75, ptr %6, align 8
  %76 = load i64, ptr %6, align 8
  store i64 %76, ptr %3, align 8
  store i32 1, ptr %18, align 4
  br label %77

77:                                               ; preds = %62, %60, %57, %49, %30
  call void @llvm.lifetime.end.p0(i64 1, ptr %17) #7
  call void @llvm.lifetime.end.p0(i64 8, ptr %16) #7
  call void @llvm.lifetime.end.p0(i64 8, ptr %15) #7
  call void @llvm.lifetime.end.p0(i64 153, ptr %14) #7
  call void @llvm.lifetime.end.p0(i64 100, ptr %13) #7
  call void @llvm.lifetime.end.p0(i64 200, ptr %12) #7
  call void @llvm.lifetime.end.p0(i64 4, ptr %11) #7
  call void @llvm.lifetime.end.p0(i64 4, ptr %10) #7
  call void @llvm.lifetime.end.p0(i64 8, ptr %9) #7
  call void @llvm.lifetime.end.p0(i64 56, ptr %8) #7
  call void @llvm.lifetime.end.p0(i64 4, ptr %7) #7
  call void @llvm.lifetime.end.p0(i64 8, ptr %6) #7
  %78 = load i64, ptr %3, align 8
  ret i64 %78
}