; Function Attrs: nounwind uwtable
define range(i64 -2147483648, 2147483648) i64 @PGTYPESdate_from_asc(ptr noundef %0, ptr noundef %1) local_unnamed_addr #0 {
  %3 = alloca i32, align 4
  %4 = alloca %struct.tm, align 8
  %5 = alloca i32, align 4
  %6 = alloca i32, align 4
  %7 = alloca [25 x ptr], align 16
  %8 = alloca [25 x i32], align 16
  %9 = alloca [153 x i8], align 16
  %10 = alloca ptr, align 8
  call void @llvm.lifetime.start.p0(i64 4, ptr nonnull %3) #12
  call void @llvm.lifetime.start.p0(i64 56, ptr nonnull %4) #12
  call void @llvm.lifetime.start.p0(i64 4, ptr nonnull %5) #12
  call void @llvm.lifetime.start.p0(i64 4, ptr nonnull %6) #12
  call void @llvm.lifetime.start.p0(i64 200, ptr nonnull %7) #12
  call void @llvm.lifetime.start.p0(i64 100, ptr nonnull %8) #12
  call void @llvm.lifetime.start.p0(i64 153, ptr nonnull %9) #12
  call void @llvm.lifetime.start.p0(i64 8, ptr nonnull %10) #12
  %11 = tail call ptr @__errno_location() #13
  store i32 0, ptr %11, align 4
  %12 = tail call i64 @strlen(ptr noundef nonnull dereferenceable(1) %0) #14
  %13 = icmp ugt i64 %12, 128
  br i1 %13, label %14, label %15

14:                                               ; preds = %2
  store i32 310, ptr %11, align 4
  br label %40

15:                                               ; preds = %2
  %.not = icmp eq ptr %1, null
  %16 = select i1 %.not, ptr %10, ptr %1
  %17 = call i32 @ParseDateTime(ptr noundef nonnull %0, ptr noundef nonnull %9, ptr noundef nonnull %7, ptr noundef nonnull %8, ptr noundef nonnull %6, ptr noundef nonnull %16) #12
  %.not12 = icmp eq i32 %17, 0
  br i1 %.not12, label %18, label %21

18:                                               ; preds = %15
  %19 = load i32, ptr %6, align 4
  %20 = call i32 @DecodeDateTime(ptr noundef nonnull %7, ptr noundef nonnull %8, i32 noundef %19, ptr noundef nonnull %5, ptr noundef nonnull %4, ptr noundef nonnull %3, i1 noundef zeroext false) #12
  %.not13 = icmp eq i32 %20, 0
  br i1 %.not13, label %22, label %21

21:                                               ; preds = %18, %15
  store i32 310, ptr %11, align 4
  br label %40

22:                                               ; preds = %18
  %23 = load i32, ptr %5, align 4
  switch i32 %23, label %28 [
    i32 2, label %29
    i32 11, label %24
  ]

24:                                               ; preds = %22
  %25 = call i32 @GetEpochTime(ptr noundef nonnull %4) #12
  %26 = icmp slt i32 %25, 0
  br i1 %26, label %27, label %29

27:                                               ; preds = %24
  store i32 310, ptr %11, align 4
  br label %40

28:                                               ; preds = %22
  store i32 310, ptr %11, align 4
  br label %40

29:                                               ; preds = %24, %22
  %30 = getelementptr inbounds nuw i8, ptr %4, i64 20
  %31 = load i32, ptr %30, align 4
  %32 = getelementptr inbounds nuw i8, ptr %4, i64 16
  %33 = load i32, ptr %32, align 8
  %34 = getelementptr inbounds nuw i8, ptr %4, i64 12
  %35 = load i32, ptr %34, align 4
  %36 = call i32 @date2j(i32 noundef %31, i32 noundef %33, i32 noundef %35) #12
  %37 = call i32 @date2j(i32 noundef 2000, i32 noundef 1, i32 noundef 1) #12
  %38 = sub i32 %36, %37
  %39 = sext i32 %38 to i64
  br label %40

40:                                               ; preds = %29, %28, %27, %21, %14
  %.0 = phi i64 [ -2147483648, %14 ], [ -2147483648, %21 ], [ -2147483648, %28 ], [ -2147483648, %27 ], [ %39, %29 ]
  call void @llvm.lifetime.end.p0(i64 8, ptr nonnull %10) #12
  call void @llvm.lifetime.end.p0(i64 153, ptr nonnull %9) #12
  call void @llvm.lifetime.end.p0(i64 100, ptr nonnull %8) #12
  call void @llvm.lifetime.end.p0(i64 200, ptr nonnull %7) #12
  call void @llvm.lifetime.end.p0(i64 4, ptr nonnull %6) #12
  call void @llvm.lifetime.end.p0(i64 4, ptr nonnull %5) #12
  call void @llvm.lifetime.end.p0(i64 56, ptr nonnull %4) #12
  call void @llvm.lifetime.end.p0(i64 4, ptr nonnull %3) #12
  ret i64 %.0
}